target datalayout = "e-m:e-p270:32:32-p271:32:32-p272:64:64-i64:64-i128:128-f80:128-n8:16:32:64-S128"
target triple = "x86_64-pc-linux-gnu"

%struct._packet_info = type { ptr, ptr, i32, i32, %struct.nstime_t, %struct.nstime_t, %struct.nstime_t, i8, ptr, ptr, ptr, ptr, %struct._address, %struct._address, %struct._address, %struct._address, %struct._address, %struct._address, i32, ptr, i8, [3 x i8], %struct.anon, i32, i32, i32, i32, ptr, i8, ptr, ptr, i16, i16, i32, i32, i16, i32, i32, ptr, ptr, ptr, i8, i8, i16, i16, i16, i32, i16, i16, ptr, ptr, ptr, ptr, ptr, i32, i32 }
%struct.nstime_t = type { i64, i32 }
%struct._address = type { i32, i32, ptr, ptr }
%struct.anon = type { i8, [3 x i8] }

@hf_nasdaq_itch_stock = internal global i32 0, align 4
@hf_nasdaq_itch_order_reference = internal global i32 0, align 4
@hf_nasdaq_itch_buy_sell = internal global i32 0, align 4
@hf_nasdaq_itch_shares = internal global i32 0, align 4
@hf_nasdaq_itch_price = internal global i32 0, align 4
@.str.122 = private unnamed_addr constant [6 x i8] c"<%s> \00", align 1
@.str.123 = private unnamed_addr constant [4 x i8] c"%c \00", align 1
@.str.124 = private unnamed_addr constant [10 x i8] c"price %g \00", align 1
@.str.125 = private unnamed_addr constant [4 x i8] c"%u \00", align 1
@.str.126 = private unnamed_addr constant [8 x i8] c"qty %u \00", align 1

; Function Attrs: null_pointer_is_valid sspstrong uwtable
define internal i32 @price(ptr noundef %0, ptr noundef %1, ptr noundef %2, i32 noundef %3, i32 noundef %4, i32 noundef %5) #0 {
  %7 = alloca ptr, align 8
  %8 = alloca ptr, align 8
  %9 = alloca ptr, align 8
  %10 = alloca i32, align 4
  %11 = alloca i32, align 4
  %12 = alloca i32, align 4
  %13 = alloca i32, align 4
  %14 = alloca ptr, align 8
  %15 = alloca double, align 8
  store ptr %0, ptr %7, align 8
  store ptr %1, ptr %8, align 8
  store ptr %2, ptr %9, align 8
  store i32 %3, ptr %10, align 4
  store i32 %4, ptr %11, align 4
  store i32 %5, ptr %12, align 4
  call void @llvm.lifetime.start.p0(i64 4, ptr %13) #6
  %16 = load i32, ptr %12, align 4
  %17 = icmp ne i32 %16, 0
  %18 = select i1 %17, i32 19, i32 10
  store i32 %18, ptr %13, align 4
  call void @llvm.lifetime.start.p0(i64 8, ptr %14) #6
  %19 = load ptr, ptr %8, align 8
  %20 = getelementptr inbounds nuw %struct._packet_info, ptr %19, i32 0, i32 51
  %21 = load ptr, ptr %20, align 8
  %22 = load ptr, ptr %7, align 8
  %23 = load i32, ptr %11, align 4
  %24 = load i32, ptr %13, align 4
  %25 = call ptr @tvb_get_string_enc(ptr noundef %21, ptr noundef %22, i32 noundef %23, i32 noundef %24, i32 noundef 0)
  store ptr %25, ptr %14, align 8
  call void @llvm.lifetime.start.p0(i64 8, ptr %15) #6
  %26 = load ptr, ptr %14, align 8
  %27 = call i64 @g_ascii_strtoull(ptr noundef %26, ptr noundef null, i32 noundef 10)
  %28 = uitofp i64 %27 to double
  %29 = load i32, ptr %12, align 4
  %30 = icmp ne i32 %29, 0
  %31 = select i1 %30, double 1.000000e+06, double 1.000000e+04
  %32 = fdiv double %28, %31
  store double %32, ptr %15, align 8
  %33 = load ptr, ptr %9, align 8
  %34 = load i32, ptr %10, align 4
  %35 = load ptr, ptr %7, align 8
  %36 = load i32, ptr %11, align 4
  %37 = load i32, ptr %13, align 4
  %38 = load double, ptr %15, align 8
  %39 = call ptr @proto_tree_add_double(ptr noundef %33, i32 noundef %34, ptr noundef %35, i32 noundef %36, i32 noundef %37, double noundef %38)
  %40 = load ptr, ptr %8, align 8
  %41 = getelementptr inbounds nuw %struct._packet_info, ptr %40, i32 0, i32 1
  %42 = load ptr, ptr %41, align 8
  %43 = load double, ptr %15, align 8
  call void (ptr, i32, ptr, ...) @col_append_fstr(ptr noundef %42, i32 noundef 25, ptr noundef @.str.124, double noundef %43)
  %44 = load i32, ptr %11, align 4
  %45 = load i32, ptr %13, align 4
  %46 = add i32 %44, %45
  call void @llvm.lifetime.end.p0(i64 8, ptr %15) #6
  call void @llvm.lifetime.end.p0(i64 8, ptr %14) #6
  call void @llvm.lifetime.end.p0(i64 4, ptr %13) #6
  ret i32 %46
}

; Function Attrs: null_pointer_is_valid sspstrong uwtable
define internal i32 @stock(ptr noundef %0, ptr noundef %1, ptr noundef %2, i32 noundef %3) #0 {
  %5 = alloca ptr, align 8
  %6 = alloca ptr, align 8
  %7 = alloca ptr, align 8
  %8 = alloca i32, align 4
  %9 = alloca ptr, align 8
  store ptr %0, ptr %5, align 8
  store ptr %1, ptr %6, align 8
  store ptr %2, ptr %7, align 8
  store i32 %3, ptr %8, align 4
  call void @llvm.lifetime.start.p0(i64 8, ptr %9) #6
  %10 = load ptr, ptr %6, align 8
  %11 = getelementptr inbounds nuw %struct._packet_info, ptr %10, i32 0, i32 51
  %12 = load ptr, ptr %11, align 8
  %13 = load ptr, ptr %5, align 8
  %14 = load i32, ptr %8, align 4
  %15 = call ptr @tvb_get_string_enc(ptr noundef %12, ptr noundef %13, i32 noundef %14, i32 noundef 6, i32 noundef 0)
  store ptr %15, ptr %9, align 8
  %16 = load ptr, ptr %7, align 8
  %17 = load i32, ptr @hf_nasdaq_itch_stock, align 4
  %18 = load ptr, ptr %5, align 8
  %19 = load i32, ptr %8, align 4
  %20 = call ptr @proto_tree_add_item(ptr noundef %16, i32 noundef %17, ptr noundef %18, i32 noundef %19, i32 noundef 6, i32 noundef 0)
  %21 = load ptr, ptr %6, align 8
  %22 = getelementptr inbounds nuw %struct._packet_info, ptr %21, i32 0, i32 1
  %23 = load ptr, ptr %22, align 8
  %24 = load ptr, ptr %9, align 8
  call void (ptr, i32, ptr, ...) @col_append_fstr(ptr noundef %23, i32 noundef 25, ptr noundef @.str.122, ptr noundef %24)
  %25 = load i32, ptr %8, align 4
  %26 = add i32 %25, 6
  call void @llvm.lifetime.end.p0(i64 8, ptr %9) #6
  ret i32 %26
}

; Function Attrs: null_pointer_is_valid sspstrong uwtable
define internal i32 @number_of_shares(ptr noundef %0, ptr noundef %1, ptr noundef %2, i32 noundef %3, i32 noundef %4, i32 noundef %5) #0 {
  %7 = alloca ptr, align 8
  %8 = alloca ptr, align 8
  %9 = alloca ptr, align 8
  %10 = alloca i32, align 4
  %11 = alloca i32, align 4
  %12 = alloca i32, align 4
  %13 = alloca i32, align 4
  %14 = alloca ptr, align 8
  %15 = alloca i32, align 4
  store ptr %0, ptr %7, align 8
  store ptr %1, ptr %8, align 8
  store ptr %2, ptr %9, align 8
  store i32 %3, ptr %10, align 4
  store i32 %4, ptr %11, align 4
  store i32 %5, ptr %12, align 4
  call void @llvm.lifetime.start.p0(i64 4, ptr %13) #6
  %16 = load i32, ptr %12, align 4
  %17 = icmp ne i32 %16, 0
  %18 = select i1 %17, i32 10, i32 6
  store i32 %18, ptr %13, align 4
  call void @llvm.lifetime.start.p0(i64 8, ptr %14) #6
  %19 = load ptr, ptr %8, align 8
  %20 = getelementptr inbounds nuw %struct._packet_info, ptr %19, i32 0, i32 51
  %21 = load ptr, ptr %20, align 8
  %22 = load ptr, ptr %7, align 8
  %23 = load i32, ptr %11, align 4
  %24 = load i32, ptr %13, align 4
  %25 = call ptr @tvb_get_string_enc(ptr noundef %21, ptr noundef %22, i32 noundef %23, i32 noundef %24, i32 noundef 0)
  store ptr %25, ptr %14, align 8
  call void @llvm.lifetime.start.p0(i64 4, ptr %15) #6
  %26 = load ptr, ptr %14, align 8
  %27 = call i64 @strtoul(ptr noundef %26, ptr noundef null, i32 noundef 10) #6
  %28 = trunc i64 %27 to i32
  store i32 %28, ptr %15, align 4
  %29 = load ptr, ptr %9, align 8
  %30 = load i32, ptr %10, align 4
  %31 = load ptr, ptr %7, align 8
  %32 = load i32, ptr %11, align 4
  %33 = load i32, ptr %13, align 4
  %34 = load i32, ptr %15, align 4
  %35 = call ptr @proto_tree_add_uint(ptr noundef %29, i32 noundef %30, ptr noundef %31, i32 noundef %32, i32 noundef %33, i32 noundef %34)
  %36 = load ptr, ptr %8, align 8
  %37 = getelementptr inbounds nuw %struct._packet_info, ptr %36, i32 0, i32 1
  %38 = load ptr, ptr %37, align 8
  %39 = load i32, ptr %15, align 4
  call void (ptr, i32, ptr, ...) @col_append_fstr(ptr noundef %38, i32 noundef 25, ptr noundef @.str.126, i32 noundef %39)
  %40 = load i32, ptr %11, align 4
  %41 = load i32, ptr %13, align 4
  %42 = add i32 %40, %41
  call void @llvm.lifetime.end.p0(i64 4, ptr %15) #6
  call void @llvm.lifetime.end.p0(i64 8, ptr %14) #6
  call void @llvm.lifetime.end.p0(i64 4, ptr %13) #6
  ret i32 %42
}

; Function Attrs: null_pointer_is_valid sspstrong uwtable
define internal i32 @order_ref_number(ptr noundef %0, ptr noundef %1, ptr noundef %2, i32 noundef %3) #0 {
  %5 = alloca ptr, align 8
  %6 = alloca ptr, align 8
  %7 = alloca ptr, align 8
  %8 = alloca i32, align 4
  %9 = alloca ptr, align 8
  %10 = alloca i32, align 4
  store ptr %0, ptr %5, align 8
  store ptr %1, ptr %6, align 8
  store ptr %2, ptr %7, align 8
  store i32 %3, ptr %8, align 4
  call void @llvm.lifetime.start.p0(i64 8, ptr %9) #6
  %11 = load ptr, ptr %6, align 8
  %12 = getelementptr inbounds nuw %struct._packet_info, ptr %11, i32 0, i32 51
  %13 = load ptr, ptr %12, align 8
  %14 = load ptr, ptr %5, align 8
  %15 = load i32, ptr %8, align 4
  %16 = call ptr @tvb_get_string_enc(ptr noundef %13, ptr noundef %14, i32 noundef %15, i32 noundef 9, i32 noundef 0)
  store ptr %16, ptr %9, align 8
  call void @llvm.lifetime.start.p0(i64 4, ptr %10) #6
  %17 = load ptr, ptr %9, align 8
  %18 = call i64 @strtoul(ptr noundef %17, ptr noundef null, i32 noundef 10) #6
  %19 = trunc i64 %18 to i32
  store i32 %19, ptr %10, align 4
  %20 = load ptr, ptr %7, align 8
  %21 = load i32, ptr @hf_nasdaq_itch_order_reference, align 4
  %22 = load ptr, ptr %5, align 8
  %23 = load i32, ptr %8, align 4
  %24 = load i32, ptr %10, align 4
  %25 = call ptr @proto_tree_add_uint(ptr noundef %20, i32 noundef %21, ptr noundef %22, i32 noundef %23, i32 noundef 9, i32 noundef %24)
  %26 = load ptr, ptr %6, align 8
  %27 = getelementptr inbounds nuw %struct._packet_info, ptr %26, i32 0, i32 1
  %28 = load ptr, ptr %27, align 8
  %29 = load i32, ptr %10, align 4
  call void (ptr, i32, ptr, ...) @col_append_fstr(ptr noundef %28, i32 noundef 25, ptr noundef @.str.125, i32 noundef %29)
  %30 = load i32, ptr %8, align 4
  %31 = add i32 %30, 9
  call void @llvm.lifetime.end.p0(i64 4, ptr %10) #6
  call void @llvm.lifetime.end.p0(i64 8, ptr %9) #6
  ret i32 %31
}

; Function Attrs: null_pointer_is_valid sspstrong uwtable
define internal i32 @order(ptr noundef %0, ptr noundef %1, ptr noundef %2, i32 noundef %3, i32 noundef %4) #0 {
  %6 = alloca ptr, align 8
  %7 = alloca ptr, align 8
  %8 = alloca ptr, align 8
  %9 = alloca i32, align 4
  %10 = alloca i32, align 4
  %11 = alloca i8, align 1
  store ptr %0, ptr %6, align 8
  store ptr %1, ptr %7, align 8
  store ptr %2, ptr %8, align 8
  store i32 %3, ptr %9, align 4
  store i32 %4, ptr %10, align 4
  call void @llvm.lifetime.start.p0(i64 1, ptr %11) #6
  %12 = load ptr, ptr %6, align 8
  %13 = load ptr, ptr %7, align 8
  %14 = load ptr, ptr %8, align 8
  %15 = load i32, ptr %9, align 4
  %16 = call i32 @order_ref_number(ptr noundef %12, ptr noundef %13, ptr noundef %14, i32 noundef %15)
  store i32 %16, ptr %9, align 4
  %17 = load ptr, ptr %6, align 8
  %18 = load i32, ptr %9, align 4
  %19 = call zeroext i8 @tvb_get_uint8(ptr noundef %17, i32 noundef %18)
  store i8 %19, ptr %11, align 1
  %20 = load ptr, ptr %7, align 8
  %21 = getelementptr inbounds nuw %struct._packet_info, ptr %20, i32 0, i32 1
  %22 = load ptr, ptr %21, align 8
  %23 = load i8, ptr %11, align 1
  %24 = zext i8 %23 to i32
  call void (ptr, i32, ptr, ...) @col_append_fstr(ptr noundef %22, i32 noundef 25, ptr noundef @.str.123, i32 noundef %24)
  %25 = load ptr, ptr %8, align 8
  %26 = load i32, ptr @hf_nasdaq_itch_buy_sell, align 4
  %27 = load ptr, ptr %6, align 8
  %28 = load i32, ptr %9, align 4
  %29 = call ptr @proto_tree_add_item(ptr noundef %25, i32 noundef %26, ptr noundef %27, i32 noundef %28, i32 noundef 1, i32 noundef 0)
  %30 = load i32, ptr %9, align 4
  %31 = add i32 %30, 1
  store i32 %31, ptr %9, align 4
  %32 = load ptr, ptr %6, align 8
  %33 = load ptr, ptr %7, align 8
  %34 = load ptr, ptr %8, align 8
  %35 = load i32, ptr @hf_nasdaq_itch_shares, align 4
  %36 = load i32, ptr %9, align 4
  %37 = load i32, ptr %10, align 4
  %38 = call i32 @number_of_shares(ptr noundef %32, ptr noundef %33, ptr noundef %34, i32 noundef %35, i32 noundef %36, i32 noundef %37)
  store i32 %38, ptr %9, align 4
  %39 = load ptr, ptr %6, align 8
  %40 = load ptr, ptr %7, align 8
  %41 = load ptr, ptr %8, align 8
  %42 = load i32, ptr %9, align 4
  %43 = call i32 @stock(ptr noundef %39, ptr noundef %40, ptr noundef %41, i32 noundef %42)
  store i32 %43, ptr %9, align 4
  %44 = load ptr, ptr %6, align 8
  %45 = load ptr, ptr %7, align 8
  %46 = load ptr, ptr %8, align 8
  %47 = load i32, ptr @hf_nasdaq_itch_price, align 4
  %48 = load i32, ptr %9, align 4
  %49 = load i32, ptr %10, align 4
  %50 = call i32 @price(ptr noundef %44, ptr noundef %45, ptr noundef %46, i32 noundef %47, i32 noundef %48, i32 noundef %49)
  store i32 %50, ptr %9, align 4
  %51 = load i32, ptr %9, align 4
  call void @llvm.lifetime.end.p0(i64 1, ptr %11) #6
  ret i32 %51
}