; Function Attrs: null_pointer_is_valid sspstrong uwtable
define internal fastcc noundef i32 @order(ptr noundef %0, ptr noundef readonly captures(none) %1, ptr noundef %2, i32 noundef %3, i32 noundef range(i32 0, 2) %4) unnamed_addr #0 {
  %6 = getelementptr inbounds nuw i8, ptr %1, i64 408
  %7 = load ptr, ptr %6, align 8
  %8 = tail call ptr @tvb_get_string_enc(ptr noundef %7, ptr noundef %0, i32 noundef %3, i32 noundef 9, i32 noundef 0)
  %9 = tail call i64 @strtoul(ptr noundef captures(none) %8, ptr noundef null, i32 noundef 10) #4
  %10 = trunc i64 %9 to i32
  %11 = load i32, ptr @hf_nasdaq_itch_order_reference, align 4
  %12 = tail call ptr @proto_tree_add_uint(ptr noundef %2, i32 noundef %11, ptr noundef %0, i32 noundef %3, i32 noundef 9, i32 noundef %10)
  %13 = getelementptr inbounds nuw i8, ptr %1, i64 8
  %14 = load ptr, ptr %13, align 8
  tail call void (ptr, i32, ptr, ...) @col_append_fstr(ptr noundef %14, i32 noundef 25, ptr noundef nonnull @.str.125, i32 noundef %10)
  %15 = add i32 %3, 9
  %16 = tail call zeroext i8 @tvb_get_uint8(ptr noundef %0, i32 noundef %15)
  %17 = load ptr, ptr %13, align 8
  %18 = zext i8 %16 to i32
  tail call void (ptr, i32, ptr, ...) @col_append_fstr(ptr noundef %17, i32 noundef 25, ptr noundef nonnull @.str.123, i32 noundef %18)
  %19 = load i32, ptr @hf_nasdaq_itch_buy_sell, align 4
  %20 = tail call ptr @proto_tree_add_item(ptr noundef %2, i32 noundef %19, ptr noundef %0, i32 noundef %15, i32 noundef 1, i32 noundef 0)
  %21 = add i32 %3, 10
  %22 = load i32, ptr @hf_nasdaq_itch_shares, align 4
  %.not.i = icmp eq i32 %4, 0
  %23 = select i1 %.not.i, i32 6, i32 10
  %24 = load ptr, ptr %6, align 8
  %25 = tail call ptr @tvb_get_string_enc(ptr noundef %24, ptr noundef %0, i32 noundef %21, i32 noundef %23, i32 noundef 0)
  %26 = tail call i64 @strtoul(ptr noundef captures(none) %25, ptr noundef null, i32 noundef 10) #4
  %27 = trunc i64 %26 to i32
  %28 = tail call ptr @proto_tree_add_uint(ptr noundef %2, i32 noundef %22, ptr noundef %0, i32 noundef %21, i32 noundef %23, i32 noundef %27)
  %29 = load ptr, ptr %13, align 8
  tail call void (ptr, i32, ptr, ...) @col_append_fstr(ptr noundef %29, i32 noundef 25, ptr noundef nonnull @.str.126, i32 noundef %27)
  %30 = add i32 %23, %21
  %31 = load ptr, ptr %6, align 8
  %32 = tail call ptr @tvb_get_string_enc(ptr noundef %31, ptr noundef %0, i32 noundef %30, i32 noundef 6, i32 noundef 0)
  %33 = load i32, ptr @hf_nasdaq_itch_stock, align 4
  %34 = tail call ptr @proto_tree_add_item(ptr noundef %2, i32 noundef %33, ptr noundef %0, i32 noundef %30, i32 noundef 6, i32 noundef 0)
  %35 = load ptr, ptr %13, align 8
  tail call void (ptr, i32, ptr, ...) @col_append_fstr(ptr noundef %35, i32 noundef 25, ptr noundef nonnull @.str.122, ptr noundef %32)
  %36 = add i32 %30, 6
  %37 = load i32, ptr @hf_nasdaq_itch_price, align 4
  %38 = select i1 %.not.i, i32 10, i32 19
  %39 = load ptr, ptr %6, align 8
  %40 = tail call ptr @tvb_get_string_enc(ptr noundef %39, ptr noundef %0, i32 noundef %36, i32 noundef %38, i32 noundef 0)
  %41 = tail call i64 @g_ascii_strtoull(ptr noundef %40, ptr noundef null, i32 noundef 10)
  %42 = uitofp i64 %41 to double
  %43 = select i1 %.not.i, double 1.000000e+04, double 1.000000e+06
  %44 = fdiv double %42, %43
  %45 = tail call ptr @proto_tree_add_double(ptr noundef %2, i32 noundef %37, ptr noundef %0, i32 noundef %36, i32 noundef %38, double noundef %44)
  %46 = load ptr, ptr %13, align 8
  tail call void (ptr, i32, ptr, ...) @col_append_fstr(ptr noundef %46, i32 noundef 25, ptr noundef nonnull @.str.124, double noundef %44)
  %47 = add i32 %36, %38
  ret i32 %47
}